target datalayout = "e-m:e-p270:32:32-p271:32:32-p272:64:64-i64:64-i128:128-f80:128-n8:16:32:64-S128"
target triple = "x86_64-pc-linux-gnu"

%struct._GtkTreeIter = type { i32, ptr, ptr, ptr }

; Function Attrs: nounwind uwtable
define internal void @_delete_tree_path(ptr noundef %0, ptr noundef %1, i32 noundef %2, i32 noundef %3) #0 {
  %5 = alloca ptr, align 8
  %6 = alloca ptr, align 8
  %7 = alloca i32, align 4
  %8 = alloca i32, align 4
  %9 = alloca %struct._GtkTreeIter, align 8
  %10 = alloca %struct._GtkTreeIter, align 8
  %11 = alloca i32, align 4
  %12 = alloca %struct._GtkTreeIter, align 8
  %13 = alloca ptr, align 8
  %14 = alloca ptr, align 8
  %15 = alloca %struct._GtkTreeIter, align 8
  %16 = alloca ptr, align 8
  %17 = alloca i32, align 4
  %18 = alloca i32, align 4
  %19 = alloca ptr, align 8
  %20 = alloca %struct._GtkTreeIter, align 8
  %21 = alloca i8, align 1
  store ptr %0, ptr %5, align 8, !tbaa !36
  store ptr %1, ptr %6, align 8, !tbaa !134
  store i32 %2, ptr %7, align 4, !tbaa !31
  store i32 %3, ptr %8, align 4, !tbaa !31
  %22 = load i32, ptr %8, align 4, !tbaa !31
  %23 = icmp ne i32 %22, 0
  br i1 %23, label %24, label %61

24:                                               ; preds = %4
  call void @llvm.lifetime.start.p0(i64 32, ptr %9) #11
  call void @llvm.lifetime.start.p0(i64 32, ptr %10) #11
  %25 = load ptr, ptr %6, align 8, !tbaa !134
  call void @llvm.memcpy.p0.p0.i64(ptr align 8 %10, ptr align 8 %25, i64 32, i1 false), !tbaa.struct !50
  call void @llvm.lifetime.start.p0(i64 4, ptr %11) #11
  store i32 1, ptr %11, align 4, !tbaa !31
  br label %26

26:                                               ; preds = %58, %24
  %27 = load ptr, ptr %5, align 8, !tbaa !36
  %28 = call i32 @gtk_tree_model_iter_children(ptr noundef %27, ptr noundef %9, ptr noundef %10)
  %29 = icmp ne i32 %28, 0
  br i1 %29, label %30, label %33

30:                                               ; preds = %26
  %31 = load ptr, ptr %5, align 8, !tbaa !36
  %32 = load i32, ptr %8, align 4, !tbaa !31
  call void @_delete_tree_path(ptr noundef %31, ptr noundef %9, i32 noundef 0, i32 noundef %32)
  br label %33

33:                                               ; preds = %30, %26
  call void @llvm.lifetime.start.p0(i64 32, ptr %12) #11
  call void @llvm.memcpy.p0.p0.i64(ptr align 8 %12, ptr align 8 %10, i64 32, i1 false), !tbaa.struct !50
  %34 = load ptr, ptr %5, align 8, !tbaa !36
  %35 = call i32 @gtk_tree_model_iter_next(ptr noundef %34, ptr noundef %10)
  store i32 %35, ptr %11, align 4, !tbaa !31
  %36 = load i32, ptr %7, align 4, !tbaa !31
  %37 = icmp ne i32 %36, 0
  br i1 %37, label %38, label %45

38:                                               ; preds = %33
  %39 = load ptr, ptr %5, align 8, !tbaa !36
  %40 = call i64 @gtk_tree_store_get_type() #12
  %41 = call ptr @g_type_check_instance_cast(ptr noundef %39, i64 noundef %40)
  call void (ptr, ptr, ...) @gtk_tree_store_set(ptr noundef %41, ptr noundef %12, i32 noundef 5, i32 noundef 0, i32 noundef 4, i32 noundef 0, i32 noundef -1)
  call void @llvm.lifetime.start.p0(i64 8, ptr %13) #11
  store ptr null, ptr %13, align 8, !tbaa !49
  %42 = load ptr, ptr %5, align 8, !tbaa !36
  call void (ptr, ptr, ...) @gtk_tree_model_get(ptr noundef %42, ptr noundef %12, i32 noundef 2, ptr noundef %13, i32 noundef -1)
  %43 = load ptr, ptr %13, align 8, !tbaa !49
  call void @g_free(ptr noundef %43)
  %44 = load ptr, ptr %5, align 8, !tbaa !36
  call void @_calculate_sel_on_tree(ptr noundef %44, ptr noundef %12)
  call void @llvm.lifetime.end.p0(i64 8, ptr %13) #11
  br label %45

45:                                               ; preds = %38, %33
  call void @llvm.lifetime.start.p0(i64 8, ptr %14) #11
  store ptr null, ptr %14, align 8, !tbaa !49
  %46 = load ptr, ptr %5, align 8, !tbaa !36
  call void (ptr, ptr, ...) @gtk_tree_model_get(ptr noundef %46, ptr noundef %12, i32 noundef 2, ptr noundef %14, i32 noundef -1)
  %47 = load ptr, ptr %14, align 8, !tbaa !49
  call void @g_free(ptr noundef %47)
  %48 = load ptr, ptr %5, align 8, !tbaa !36
  %49 = call i64 @gtk_tree_store_get_type() #12
  %50 = call ptr @g_type_check_instance_cast(ptr noundef %48, i64 noundef %49)
  %51 = call i32 @gtk_tree_store_remove(ptr noundef %50, ptr noundef %12)
  call void @llvm.lifetime.end.p0(i64 8, ptr %14) #11
  call void @llvm.lifetime.end.p0(i64 32, ptr %12) #11
  br label %52

52:                                               ; preds = %45
  %53 = load i32, ptr %7, align 4, !tbaa !31
  %54 = icmp ne i32 %53, 0
  br i1 %54, label %58, label %55

55:                                               ; preds = %52
  %56 = load i32, ptr %11, align 4, !tbaa !31
  %57 = icmp ne i32 %56, 0
  br label %58

58:                                               ; preds = %55, %52
  %59 = phi i1 [ false, %52 ], [ %57, %55 ]
  br i1 %59, label %26, label %60

60:                                               ; preds = %58
  call void @llvm.lifetime.end.p0(i64 4, ptr %11) #11
  call void @llvm.lifetime.end.p0(i64 32, ptr %10) #11
  call void @llvm.lifetime.end.p0(i64 32, ptr %9) #11
  br label %110

61:                                               ; preds = %4
  call void @llvm.lifetime.start.p0(i64 32, ptr %15) #11
  call void @llvm.lifetime.start.p0(i64 8, ptr %16) #11
  store ptr null, ptr %16, align 8, !tbaa !49
  %62 = load ptr, ptr %5, align 8, !tbaa !36
  %63 = load ptr, ptr %6, align 8, !tbaa !134
  call void (ptr, ptr, ...) @gtk_tree_model_get(ptr noundef %62, ptr noundef %63, i32 noundef 2, ptr noundef %16, i32 noundef -1)
  call void @llvm.lifetime.start.p0(i64 4, ptr %17) #11
  %64 = load ptr, ptr %16, align 8, !tbaa !49
  %65 = call i64 @strlen(ptr noundef %64) #13
  %66 = trunc i64 %65 to i32
  store i32 %66, ptr %17, align 4, !tbaa !31
  call void @llvm.lifetime.start.p0(i64 4, ptr %18) #11
  %67 = load ptr, ptr %5, align 8, !tbaa !36
  %68 = call i32 @gtk_tree_model_get_iter_first(ptr noundef %67, ptr noundef %15)
  store i32 %68, ptr %18, align 4, !tbaa !31
  br label %69

69:                                               ; preds = %106, %61
  %70 = load i32, ptr %18, align 4, !tbaa !31
  %71 = icmp ne i32 %70, 0
  br i1 %71, label %72, label %108

72:                                               ; preds = %69
  call void @llvm.lifetime.start.p0(i64 8, ptr %19) #11
  store ptr null, ptr %19, align 8, !tbaa !49
  %73 = load ptr, ptr %5, align 8, !tbaa !36
  call void (ptr, ptr, ...) @gtk_tree_model_get(ptr noundef %73, ptr noundef %15, i32 noundef 2, ptr noundef %19, i32 noundef -1)
  call void @llvm.lifetime.start.p0(i64 32, ptr %20) #11
  call void @llvm.memcpy.p0.p0.i64(ptr align 8 %20, ptr align 8 %15, i64 32, i1 false), !tbaa.struct !50
  %74 = load ptr, ptr %5, align 8, !tbaa !36
  %75 = call i32 @gtk_tree_model_iter_next(ptr noundef %74, ptr noundef %15)
  store i32 %75, ptr %18, align 4, !tbaa !31
  %76 = load ptr, ptr %19, align 8, !tbaa !49
  %77 = call i64 @strlen(ptr noundef %76) #13
  %78 = load i32, ptr %17, align 4, !tbaa !31
  %79 = zext i32 %78 to i64
  %80 = icmp uge i64 %77, %79
  br i1 %80, label %81, label %106

81:                                               ; preds = %72
  call void @llvm.lifetime.start.p0(i64 1, ptr %21) #11
  %82 = load ptr, ptr %19, align 8, !tbaa !49
  %83 = load i32, ptr %17, align 4, !tbaa !31
  %84 = zext i32 %83 to i64
  %85 = getelementptr inbounds nuw i8, ptr %82, i64 %84
  %86 = load i8, ptr %85, align 1, !tbaa !52
  store i8 %86, ptr %21, align 1, !tbaa !52
  %87 = load ptr, ptr %19, align 8, !tbaa !49
  %88 = load i32, ptr %17, align 4, !tbaa !31
  %89 = zext i32 %88 to i64
  %90 = getelementptr inbounds nuw i8, ptr %87, i64 %89
  store i8 0, ptr %90, align 1, !tbaa !52
  %91 = load ptr, ptr %16, align 8, !tbaa !49
  %92 = load ptr, ptr %19, align 8, !tbaa !49
  %93 = call i32 @g_strcmp0(ptr noundef %91, ptr noundef %92)
  %94 = icmp eq i32 %93, 0
  br i1 %94, label %95, label %105

95:                                               ; preds = %81
  %96 = load i8, ptr %21, align 1, !tbaa !52
  %97 = load ptr, ptr %19, align 8, !tbaa !49
  %98 = load i32, ptr %17, align 4, !tbaa !31
  %99 = zext i32 %98 to i64
  %100 = getelementptr inbounds nuw i8, ptr %97, i64 %99
  store i8 %96, ptr %100, align 1, !tbaa !52
  %101 = load ptr, ptr %5, align 8, !tbaa !36
  %102 = call i64 @gtk_list_store_get_type() #12
  %103 = call ptr @g_type_check_instance_cast(ptr noundef %101, i64 noundef %102)
  %104 = call i32 @gtk_list_store_remove(ptr noundef %103, ptr noundef %20)
  br label %105

105:                                              ; preds = %95, %81
  call void @llvm.lifetime.end.p0(i64 1, ptr %21) #11
  br label %106

106:                                              ; preds = %105, %72
  %107 = load ptr, ptr %19, align 8, !tbaa !49
  call void @g_free(ptr noundef %107)
  call void @llvm.lifetime.end.p0(i64 32, ptr %20) #11
  call void @llvm.lifetime.end.p0(i64 8, ptr %19) #11
  br label %69

108:                                              ; preds = %69
  %109 = load ptr, ptr %16, align 8, !tbaa !49
  call void @g_free(ptr noundef %109)
  call void @llvm.lifetime.end.p0(i64 4, ptr %18) #11
  call void @llvm.lifetime.end.p0(i64 4, ptr %17) #11
  call void @llvm.lifetime.end.p0(i64 8, ptr %16) #11
  call void @llvm.lifetime.end.p0(i64 32, ptr %15) #11
  br label %110

110:                                              ; preds = %108, %60
  ret void
}