; Function Attrs: nounwind uwtable
define internal fastcc void @_delete_tree_path(ptr noundef %0, ptr noundef nonnull %1, i32 noundef range(i32 0, 2) %2, i32 noundef %3) unnamed_addr #1 {
  %5 = alloca %struct._GtkTreeIter, align 8
  %6 = alloca %struct._GtkTreeIter, align 8
  %7 = alloca %struct._GtkTreeIter, align 8
  %8 = alloca ptr, align 8
  %9 = alloca ptr, align 8
  %10 = alloca %struct._GtkTreeIter, align 8
  %11 = alloca ptr, align 8
  %12 = alloca ptr, align 8
  %13 = alloca %struct._GtkTreeIter, align 8
  %.not = icmp eq i32 %3, 0
  br i1 %.not, label %32, label %14

14:                                               ; preds = %4
  call void @llvm.lifetime.start.p0(i64 32, ptr nonnull %5) #16
  call void @llvm.lifetime.start.p0(i64 32, ptr nonnull %6) #16
  call void @llvm.memcpy.p0.p0.i64(ptr noundef nonnull align 8 dereferenceable(32) %6, ptr noundef nonnull align 8 dereferenceable(32) %1, i64 32, i1 false), !tbaa.struct !45
  %.not30 = icmp eq i32 %2, 0
  br i1 %.not30, label %.split.us, label %.split

.split.us:                                        ; preds = %14, %17
  %15 = call i32 @gtk_tree_model_iter_children(ptr noundef %0, ptr noundef nonnull %5, ptr noundef nonnull %6) #16
  %.not29.us = icmp eq i32 %15, 0
  br i1 %.not29.us, label %17, label %16

16:                                               ; preds = %.split.us
  call fastcc void @_delete_tree_path(ptr noundef %0, ptr noundef %5, i32 noundef 0, i32 noundef %3)
  br label %17

17:                                               ; preds = %16, %.split.us
  call void @llvm.lifetime.start.p0(i64 32, ptr nonnull %7) #16
  call void @llvm.memcpy.p0.p0.i64(ptr noundef nonnull align 8 dereferenceable(32) %7, ptr noundef nonnull align 8 dereferenceable(32) %6, i64 32, i1 false), !tbaa.struct !45
  %18 = call i32 @gtk_tree_model_iter_next(ptr noundef %0, ptr noundef nonnull %6) #16
  call void @llvm.lifetime.start.p0(i64 8, ptr nonnull %9) #16
  store ptr null, ptr %9, align 8, !tbaa !31
  call void (ptr, ptr, ...) @gtk_tree_model_get(ptr noundef %0, ptr noundef nonnull %7, i32 noundef 2, ptr noundef nonnull %9, i32 noundef -1) #16
  %19 = load ptr, ptr %9, align 8, !tbaa !31
  call void @g_free(ptr noundef %19) #16
  %20 = tail call i64 @gtk_tree_store_get_type() #17
  %21 = call ptr @g_type_check_instance_cast(ptr noundef %0, i64 noundef %20) #16
  %22 = call i32 @gtk_tree_store_remove(ptr noundef %21, ptr noundef nonnull %7) #16
  call void @llvm.lifetime.end.p0(i64 8, ptr nonnull %9) #16
  call void @llvm.lifetime.end.p0(i64 32, ptr nonnull %7) #16
  %.not34 = icmp eq i32 %18, 0
  br i1 %.not34, label %.split32.us, label %.split.us

.split:                                           ; preds = %14
  %23 = call i32 @gtk_tree_model_iter_children(ptr noundef %0, ptr noundef nonnull %5, ptr noundef nonnull %6) #16
  %.not29 = icmp eq i32 %23, 0
  br i1 %.not29, label %.split32, label %24

24:                                               ; preds = %.split
  call fastcc void @_delete_tree_path(ptr noundef %0, ptr noundef %5, i32 noundef 0, i32 noundef %3)
  br label %.split32

.split32:                                         ; preds = %24, %.split
  call void @llvm.lifetime.start.p0(i64 32, ptr nonnull %7) #16
  call void @llvm.memcpy.p0.p0.i64(ptr noundef nonnull align 8 dereferenceable(32) %7, ptr noundef nonnull align 8 dereferenceable(32) %6, i64 32, i1 false), !tbaa.struct !45
  %25 = call i32 @gtk_tree_model_iter_next(ptr noundef %0, ptr noundef nonnull %6) #16
  %26 = tail call i64 @gtk_tree_store_get_type() #17
  %27 = call ptr @g_type_check_instance_cast(ptr noundef %0, i64 noundef %26) #16
  call void (ptr, ptr, ...) @gtk_tree_store_set(ptr noundef %27, ptr noundef nonnull %7, i32 noundef 5, i32 noundef 0, i32 noundef 4, i32 noundef 0, i32 noundef -1) #16
  call void @llvm.lifetime.start.p0(i64 8, ptr nonnull %8) #16
  store ptr null, ptr %8, align 8, !tbaa !31
  call void (ptr, ptr, ...) @gtk_tree_model_get(ptr noundef %0, ptr noundef nonnull %7, i32 noundef 2, ptr noundef nonnull %8, i32 noundef -1) #16
  %28 = load ptr, ptr %8, align 8, !tbaa !31
  call void @g_free(ptr noundef %28) #16
  call fastcc void @_calculate_sel_on_tree(ptr noundef %0, ptr noundef %7)
  call void @llvm.lifetime.end.p0(i64 8, ptr nonnull %8) #16
  call void @llvm.lifetime.start.p0(i64 8, ptr nonnull %9) #16
  store ptr null, ptr %9, align 8, !tbaa !31
  call void (ptr, ptr, ...) @gtk_tree_model_get(ptr noundef %0, ptr noundef nonnull %7, i32 noundef 2, ptr noundef nonnull %9, i32 noundef -1) #16
  %29 = load ptr, ptr %9, align 8, !tbaa !31
  call void @g_free(ptr noundef %29) #16
  %30 = call ptr @g_type_check_instance_cast(ptr noundef %0, i64 noundef %26) #16
  %31 = call i32 @gtk_tree_store_remove(ptr noundef %30, ptr noundef nonnull %7) #16
  call void @llvm.lifetime.end.p0(i64 8, ptr nonnull %9) #16
  call void @llvm.lifetime.end.p0(i64 32, ptr nonnull %7) #16
  br label %.split32.us

.split32.us:                                      ; preds = %17, %.split32
  call void @llvm.lifetime.end.p0(i64 32, ptr nonnull %6) #16
  call void @llvm.lifetime.end.p0(i64 32, ptr nonnull %5) #16
  br label %56

32:                                               ; preds = %4
  call void @llvm.lifetime.start.p0(i64 32, ptr nonnull %10) #16
  call void @llvm.lifetime.start.p0(i64 8, ptr nonnull %11) #16
  store ptr null, ptr %11, align 8, !tbaa !31
  call void (ptr, ptr, ...) @gtk_tree_model_get(ptr noundef %0, ptr noundef nonnull %1, i32 noundef 2, ptr noundef nonnull %11, i32 noundef -1) #16
  %33 = load ptr, ptr %11, align 8, !tbaa !31
  %34 = call i64 @strlen(ptr noundef nonnull dereferenceable(1) %33) #18
  %35 = call i32 @gtk_tree_model_get_iter_first(ptr noundef %0, ptr noundef nonnull %10) #16
  %.not2733 = icmp eq i32 %35, 0
  br i1 %.not2733, label %._crit_edge, label %.lr.ph

.lr.ph:                                           ; preds = %32
  %36 = and i64 %34, 4294967295
  br label %37

37:                                               ; preds = %.lr.ph, %53
  call void @llvm.lifetime.start.p0(i64 8, ptr nonnull %12) #16
  store ptr null, ptr %12, align 8, !tbaa !31
  call void (ptr, ptr, ...) @gtk_tree_model_get(ptr noundef %0, ptr noundef nonnull %10, i32 noundef 2, ptr noundef nonnull %12, i32 noundef -1) #16
  call void @llvm.lifetime.start.p0(i64 32, ptr nonnull %13) #16
  call void @llvm.memcpy.p0.p0.i64(ptr noundef nonnull align 8 dereferenceable(32) %13, ptr noundef nonnull align 8 dereferenceable(32) %10, i64 32, i1 false), !tbaa.struct !45
  %38 = call i32 @gtk_tree_model_iter_next(ptr noundef %0, ptr noundef nonnull %10) #16
  %39 = load ptr, ptr %12, align 8, !tbaa !31
  %40 = call i64 @strlen(ptr noundef nonnull dereferenceable(1) %39) #18
  %.not28 = icmp ult i64 %40, %36
  br i1 %.not28, label %53, label %41

41:                                               ; preds = %37
  %42 = getelementptr inbounds nuw i8, ptr %39, i64 %36
  %43 = load i8, ptr %42, align 1, !tbaa !40
  store i8 0, ptr %42, align 1, !tbaa !40
  %44 = load ptr, ptr %11, align 8, !tbaa !31
  %45 = load ptr, ptr %12, align 8, !tbaa !31
  %46 = call i32 @g_strcmp0(ptr noundef %44, ptr noundef %45) #16
  %47 = icmp eq i32 %46, 0
  %.pre35 = load ptr, ptr %12, align 8, !tbaa !31
  br i1 %47, label %48, label %53

48:                                               ; preds = %41
  %49 = getelementptr inbounds nuw i8, ptr %.pre35, i64 %36
  store i8 %43, ptr %49, align 1, !tbaa !40
  %50 = tail call i64 @gtk_list_store_get_type() #17
  %51 = call ptr @g_type_check_instance_cast(ptr noundef %0, i64 noundef %50) #16
  %52 = call i32 @gtk_list_store_remove(ptr noundef %51, ptr noundef nonnull %13) #16
  %.pre = load ptr, ptr %12, align 8, !tbaa !31
  br label %53

53:                                               ; preds = %41, %48, %37
  %54 = phi ptr [ %.pre35, %41 ], [ %.pre, %48 ], [ %39, %37 ]
  call void @g_free(ptr noundef %54) #16
  call void @llvm.lifetime.end.p0(i64 32, ptr nonnull %13) #16
  call void @llvm.lifetime.end.p0(i64 8, ptr nonnull %12) #16
  %.not27 = icmp eq i32 %38, 0
  br i1 %.not27, label %._crit_edge, label %37

._crit_edge:                                      ; preds = %53, %32
  %55 = load ptr, ptr %11, align 8, !tbaa !31
  call void @g_free(ptr noundef %55) #16
  call void @llvm.lifetime.end.p0(i64 8, ptr nonnull %11) #16
  call void @llvm.lifetime.end.p0(i64 32, ptr nonnull %10) #16
  br label %56

56:                                               ; preds = %._crit_edge, %.split32.us
  ret void
}